target datalayout = "e-m:e-p270:32:32-p271:32:32-p272:64:64-i64:64-i128:128-f80:128-n8:16:32:64-S128"
target triple = "x86_64-pc-linux-gnu"

@.str = private unnamed_addr constant [13 x i8] c"slurmstepd.c\00", align 1
@.str.71 = private unnamed_addr constant [45 x i8] c"%s:%d: %s: safe_write (%zu of %d) failed: %m\00", align 1
@.str.72 = private unnamed_addr constant [48 x i8] c"%s:%d: %s: safe_write (%zu of %d) partial write\00", align 1
@__func__._send_fail_to_slurmd = private unnamed_addr constant [21 x i8] c"_send_fail_to_slurmd\00", align 1
@.str.74 = private unnamed_addr constant [32 x i8] c"Unable to send \22fail\22 to slurmd\00", align 1

; Function Attrs: nounwind uwtable
define internal void @_send_fail_to_slurmd(i32 noundef %0, i32 noundef %1) #0 {
  %3 = alloca i32, align 4
  %4 = alloca i32, align 4
  %5 = alloca i64, align 8
  %6 = alloca ptr, align 8
  %7 = alloca i32, align 4
  %8 = alloca i32, align 4
  store i32 %0, ptr %3, align 4
  store i32 %1, ptr %4, align 4
  br label %9

9:                                                ; preds = %2
  call void @llvm.lifetime.start.p0(i64 8, ptr %5) #9
  store i64 4, ptr %5, align 8
  call void @llvm.lifetime.start.p0(i64 8, ptr %6) #9
  store ptr %4, ptr %6, align 8
  call void @llvm.lifetime.start.p0(i64 4, ptr %7) #9
  br label %10

10:                                               ; preds = %66, %29, %9
  %11 = load i64, ptr %5, align 8
  %12 = icmp ugt i64 %11, 0
  br i1 %12, label %13, label %67

13:                                               ; preds = %10
  %14 = load i32, ptr %3, align 4
  %15 = load ptr, ptr %6, align 8
  %16 = load i64, ptr %5, align 8
  %17 = call i64 @write(i32 noundef %14, ptr noundef %15, i64 noundef %16)
  %18 = trunc i64 %17 to i32
  store i32 %18, ptr %7, align 4
  %19 = load i32, ptr %7, align 4
  %20 = icmp slt i32 %19, 0
  br i1 %20, label %21, label %42

21:                                               ; preds = %13
  %22 = call ptr @__errno_location() #10
  %23 = load i32, ptr %22, align 4
  %24 = icmp eq i32 %23, 11
  br i1 %24, label %29, label %25

25:                                               ; preds = %21
  %26 = call ptr @__errno_location() #10
  %27 = load i32, ptr %26, align 4
  %28 = icmp eq i32 %27, 4
  br i1 %28, label %29, label %30

29:                                               ; preds = %25, %21
  br label %10, !llvm.loop !26

30:                                               ; preds = %25
  br label %31

31:                                               ; preds = %30
  br label %32

32:                                               ; preds = %31
  %33 = call i32 @get_log_level()
  %34 = icmp sge i32 %33, 5
  br i1 %34, label %35, label %37

35:                                               ; preds = %32
  %36 = load i64, ptr %5, align 8
  call void (i32, ptr, ...) @log_var(i32 noundef 5, ptr noundef @.str.71, ptr noundef @.str, i32 noundef 762, ptr noundef @__func__._send_fail_to_slurmd, i64 noundef %36, i32 noundef 4)
  br label %37

37:                                               ; preds = %35, %32
  br label %38

38:                                               ; preds = %37
  br label %39

39:                                               ; preds = %38
  br label %40

40:                                               ; preds = %39
  br label %41

41:                                               ; preds = %40
  store i32 10, ptr %8, align 4
  br label %68

42:                                               ; preds = %13
  %43 = load i32, ptr %7, align 4
  %44 = load ptr, ptr %6, align 8
  %45 = sext i32 %43 to i64
  %46 = getelementptr inbounds i8, ptr %44, i64 %45
  store ptr %46, ptr %6, align 8
  %47 = load i32, ptr %7, align 4
  %48 = sext i32 %47 to i64
  %49 = load i64, ptr %5, align 8
  %50 = sub i64 %49, %48
  store i64 %50, ptr %5, align 8
  %51 = load i64, ptr %5, align 8
  %52 = icmp ugt i64 %51, 0
  br i1 %52, label %53, label %65

53:                                               ; preds = %42
  br label %54

54:                                               ; preds = %53
  br label %55

55:                                               ; preds = %54
  %56 = call i32 @get_log_level()
  %57 = icmp sge i32 %56, 7
  br i1 %57, label %58, label %60

58:                                               ; preds = %55
  %59 = load i64, ptr %5, align 8
  call void (i32, ptr, ...) @log_var(i32 noundef 7, ptr noundef @.str.72, ptr noundef @.str, i32 noundef 762, ptr noundef @__func__._send_fail_to_slurmd, i64 noundef %59, i32 noundef 4)
  br label %60

60:                                               ; preds = %58, %55
  br label %61

61:                                               ; preds = %60
  br label %62

62:                                               ; preds = %61
  br label %63

63:                                               ; preds = %62
  br label %64

64:                                               ; preds = %63
  br label %65

65:                                               ; preds = %64, %42
  br label %66

66:                                               ; preds = %65
  br label %10, !llvm.loop !26

67:                                               ; preds = %10
  store i32 0, ptr %8, align 4
  br label %68

68:                                               ; preds = %41, %67
  call void @llvm.lifetime.end.p0(i64 4, ptr %7) #9
  call void @llvm.lifetime.end.p0(i64 8, ptr %6) #9
  call void @llvm.lifetime.end.p0(i64 8, ptr %5) #9
  %69 = load i32, ptr %8, align 4
  switch i32 %69, label %75 [
    i32 0, label %70
    i32 10, label %72
  ]

70:                                               ; preds = %68
  br label %71

71:                                               ; preds = %70
  br label %74

72:                                               ; preds = %68
  %73 = call i32 (ptr, ...) @error(ptr noundef @.str.74)
  br label %74

74:                                               ; preds = %72, %71
  ret void

75:                                               ; preds = %68
  unreachable
}