; Function Attrs: nounwind uwtable
define internal fastcc void @_send_fail_to_slurmd(i32 noundef range(i32 1, 0) %0) unnamed_addr #1 {
  %2 = alloca i32, align 4
  store i32 %0, ptr %2, align 4
  br label %.lr.ph.split

.lr.ph.split:                                     ; preds = %.lr.ph.split.backedge, %1
  %.012.ph33 = phi i64 [ 4, %1 ], [ %16, %.lr.ph.split.backedge ]
  %.013.ph31 = phi ptr [ %2, %1 ], [ %15, %.lr.ph.split.backedge ]
  %3 = call i64 @write(i32 noundef 1, ptr noundef %.013.ph31, i64 noundef %.012.ph33) #15
  %4 = and i64 %3, 2147483648
  %.not1729 = icmp eq i64 %4, 0
  br i1 %.not1729, label %.split.us, label %.lr.ph30

.lr.ph30:                                         ; preds = %.lr.ph.split
  %5 = tail call ptr @__errno_location() #16
  br label %6

6:                                                ; preds = %.lr.ph30, %8
  %7 = load i32, ptr %5, align 4
  switch i32 %7, label %.split24.us [
    i32 11, label %8
    i32 4, label %8
  ]

8:                                                ; preds = %6, %6
  %9 = call i64 @write(i32 noundef 1, ptr noundef %.013.ph31, i64 noundef %.012.ph33) #15
  %10 = and i64 %9, 2147483648
  %.not17 = icmp eq i64 %10, 0
  br i1 %.not17, label %.split.us, label %6

.split24.us:                                      ; preds = %6
  %11 = tail call i32 @get_log_level() #15
  %12 = icmp sgt i32 %11, 4
  br i1 %12, label %13, label %21

13:                                               ; preds = %.split24.us
  tail call void (i32, ptr, ...) @log_var(i32 noundef 5, ptr noundef nonnull @.str.71, ptr noundef nonnull @.str, i32 noundef 762, ptr noundef nonnull @__func__._send_fail_to_slurmd, i64 noundef %.012.ph33, i32 noundef 4) #15
  br label %21

.split.us:                                        ; preds = %8, %.lr.ph.split
  %.us-phi = phi i64 [ %3, %.lr.ph.split ], [ %9, %8 ]
  %14 = and i64 %.us-phi, 2147483647
  %15 = getelementptr inbounds nuw i8, ptr %.013.ph31, i64 %14
  %16 = sub i64 %.012.ph33, %14
  %.not18 = icmp eq i64 %16, 0
  br i1 %.not18, label %.loopexit, label %17

17:                                               ; preds = %.split.us
  %18 = tail call i32 @get_log_level() #15
  %19 = icmp sgt i32 %18, 6
  br i1 %19, label %20, label %.lr.ph.split.backedge

20:                                               ; preds = %17
  tail call void (i32, ptr, ...) @log_var(i32 noundef 7, ptr noundef nonnull @.str.72, ptr noundef nonnull @.str, i32 noundef 762, ptr noundef nonnull @__func__._send_fail_to_slurmd, i64 noundef %16, i32 noundef 4) #15
  br label %.lr.ph.split.backedge

.lr.ph.split.backedge:                            ; preds = %20, %17
  br label %.lr.ph.split, !llvm.loop !26

21:                                               ; preds = %13, %.split24.us
  %22 = tail call i32 (ptr, ...) @error(ptr noundef nonnull @.str.74) #15
  br label %.loopexit

.loopexit:                                        ; preds = %.split.us, %21
  ret void
}